target datalayout = "e-m:e-p270:32:32-p271:32:32-p272:64:64-i64:64-i128:128-f80:128-n8:16:32:64-S128"
target triple = "x86_64-pc-linux-gnu"

%struct.strbuf = type { i64, i64, ptr }
%struct.object_id = type { [32 x i8], i32 }

@the_repository = external global ptr, align 8
@comment_line_str = external global ptr, align 8
@.str.10 = private unnamed_addr constant [3 x i8] c"%s\00", align 1
@default_abbrev = external global i32, align 4
@__const.read_rebase_todolist.line = private unnamed_addr constant %struct.strbuf { i64 0, i64 0, ptr @strbuf_slopbuf }, align 8
@.str.135 = private unnamed_addr constant [2 x i8] c"r\00", align 1
@.str.136 = private unnamed_addr constant [35 x i8] c"Could not open file %s for reading\00", align 1
@.str.137 = private unnamed_addr constant [6 x i8] c"exec \00", align 1
@.str.138 = private unnamed_addr constant [3 x i8] c"x \00", align 1
@.str.139 = private unnamed_addr constant [7 x i8] c"label \00", align 1
@.str.140 = private unnamed_addr constant [3 x i8] c"l \00", align 1

; Function Attrs: inlinehint nounwind uwtable
define internal ptr @strbuf_split_max(ptr noundef %0, i32 noundef %1, i32 noundef %2) #8 {
  %4 = alloca ptr, align 8
  %5 = alloca i32, align 4
  %6 = alloca i32, align 4
  store ptr %0, ptr %4, align 8, !tbaa !186
  store i32 %1, ptr %5, align 4, !tbaa !11
  store i32 %2, ptr %6, align 4, !tbaa !11
  %7 = load ptr, ptr %4, align 8, !tbaa !186
  %8 = getelementptr inbounds nuw %struct.strbuf, ptr %7, i32 0, i32 2
  %9 = load ptr, ptr %8, align 8, !tbaa !29
  %10 = load ptr, ptr %4, align 8, !tbaa !186
  %11 = getelementptr inbounds nuw %struct.strbuf, ptr %10, i32 0, i32 1
  %12 = load i64, ptr %11, align 8, !tbaa !15
  %13 = load i32, ptr %5, align 4, !tbaa !11
  %14 = load i32, ptr %6, align 4, !tbaa !11
  %15 = call ptr @strbuf_split_buf(ptr noundef %9, i64 noundef %12, i32 noundef %13, i32 noundef %14)
  ret ptr %15
}

; Function Attrs: nounwind uwtable
define internal void @abbrev_oid_in_line(ptr noundef %0) #0 {
  %2 = alloca ptr, align 8
  %3 = alloca ptr, align 8
  %4 = alloca i32, align 4
  %5 = alloca i32, align 4
  %6 = alloca %struct.object_id, align 4
  store ptr %0, ptr %2, align 8, !tbaa !186
  call void @llvm.lifetime.start.p0(i64 8, ptr %3) #12
  call void @llvm.lifetime.start.p0(i64 4, ptr %4) #12
  %7 = load ptr, ptr %2, align 8, !tbaa !186
  %8 = getelementptr inbounds nuw %struct.strbuf, ptr %7, i32 0, i32 2
  %9 = load ptr, ptr %8, align 8, !tbaa !29
  %10 = call i32 @starts_with(ptr noundef %9, ptr noundef @.str.137)
  %11 = icmp ne i32 %10, 0
  br i1 %11, label %30, label %12

12:                                               ; preds = %1
  %13 = load ptr, ptr %2, align 8, !tbaa !186
  %14 = getelementptr inbounds nuw %struct.strbuf, ptr %13, i32 0, i32 2
  %15 = load ptr, ptr %14, align 8, !tbaa !29
  %16 = call i32 @starts_with(ptr noundef %15, ptr noundef @.str.138)
  %17 = icmp ne i32 %16, 0
  br i1 %17, label %30, label %18

18:                                               ; preds = %12
  %19 = load ptr, ptr %2, align 8, !tbaa !186
  %20 = getelementptr inbounds nuw %struct.strbuf, ptr %19, i32 0, i32 2
  %21 = load ptr, ptr %20, align 8, !tbaa !29
  %22 = call i32 @starts_with(ptr noundef %21, ptr noundef @.str.139)
  %23 = icmp ne i32 %22, 0
  br i1 %23, label %30, label %24

24:                                               ; preds = %18
  %25 = load ptr, ptr %2, align 8, !tbaa !186
  %26 = getelementptr inbounds nuw %struct.strbuf, ptr %25, i32 0, i32 2
  %27 = load ptr, ptr %26, align 8, !tbaa !29
  %28 = call i32 @starts_with(ptr noundef %27, ptr noundef @.str.140)
  %29 = icmp ne i32 %28, 0
  br i1 %29, label %30, label %31

30:                                               ; preds = %24, %18, %12, %1
  store i32 1, ptr %5, align 4
  br label %88

31:                                               ; preds = %24
  %32 = load ptr, ptr %2, align 8, !tbaa !186
  %33 = call ptr @strbuf_split_max(ptr noundef %32, i32 noundef 32, i32 noundef 3)
  store ptr %33, ptr %3, align 8, !tbaa !316
  %34 = load ptr, ptr %3, align 8, !tbaa !316
  %35 = getelementptr inbounds ptr, ptr %34, i64 0
  %36 = load ptr, ptr %35, align 8, !tbaa !186
  %37 = icmp ne ptr %36, null
  br i1 %37, label %38, label %86

38:                                               ; preds = %31
  %39 = load ptr, ptr %3, align 8, !tbaa !316
  %40 = getelementptr inbounds ptr, ptr %39, i64 1
  %41 = load ptr, ptr %40, align 8, !tbaa !186
  %42 = icmp ne ptr %41, null
  br i1 %42, label %43, label %86

43:                                               ; preds = %38
  call void @llvm.lifetime.start.p0(i64 36, ptr %6) #12
  %44 = load ptr, ptr %3, align 8, !tbaa !316
  %45 = getelementptr inbounds ptr, ptr %44, i64 1
  %46 = load ptr, ptr %45, align 8, !tbaa !186
  call void @strbuf_trim(ptr noundef %46)
  %47 = load ptr, ptr @the_repository, align 8, !tbaa !33
  %48 = load ptr, ptr %3, align 8, !tbaa !316
  %49 = getelementptr inbounds ptr, ptr %48, i64 1
  %50 = load ptr, ptr %49, align 8, !tbaa !186
  %51 = getelementptr inbounds nuw %struct.strbuf, ptr %50, i32 0, i32 2
  %52 = load ptr, ptr %51, align 8, !tbaa !29
  %53 = call i32 @repo_get_oid(ptr noundef %47, ptr noundef %52, ptr noundef %6)
  %54 = icmp ne i32 %53, 0
  br i1 %54, label %85, label %55

55:                                               ; preds = %43
  %56 = load ptr, ptr %3, align 8, !tbaa !316
  %57 = getelementptr inbounds ptr, ptr %56, i64 1
  %58 = load ptr, ptr %57, align 8, !tbaa !186
  call void @strbuf_setlen(ptr noundef %58, i64 noundef 0)
  %59 = load ptr, ptr %3, align 8, !tbaa !316
  %60 = getelementptr inbounds ptr, ptr %59, i64 1
  %61 = load ptr, ptr %60, align 8, !tbaa !186
  %62 = load i32, ptr @default_abbrev, align 4, !tbaa !11
  call void @strbuf_add_unique_abbrev(ptr noundef %61, ptr noundef %6, i32 noundef %62)
  %63 = load ptr, ptr %3, align 8, !tbaa !316
  %64 = getelementptr inbounds ptr, ptr %63, i64 1
  %65 = load ptr, ptr %64, align 8, !tbaa !186
  call void @strbuf_addch(ptr noundef %65, i32 noundef 32)
  %66 = load ptr, ptr %2, align 8, !tbaa !186
  call void @strbuf_setlen(ptr noundef %66, i64 noundef 0)
  store i32 0, ptr %4, align 4, !tbaa !11
  br label %67

67:                                               ; preds = %81, %55
  %68 = load ptr, ptr %3, align 8, !tbaa !316
  %69 = load i32, ptr %4, align 4, !tbaa !11
  %70 = sext i32 %69 to i64
  %71 = getelementptr inbounds ptr, ptr %68, i64 %70
  %72 = load ptr, ptr %71, align 8, !tbaa !186
  %73 = icmp ne ptr %72, null
  br i1 %73, label %74, label %84

74:                                               ; preds = %67
  %75 = load ptr, ptr %2, align 8, !tbaa !186
  %76 = load ptr, ptr %3, align 8, !tbaa !316
  %77 = load i32, ptr %4, align 4, !tbaa !11
  %78 = sext i32 %77 to i64
  %79 = getelementptr inbounds ptr, ptr %76, i64 %78
  %80 = load ptr, ptr %79, align 8, !tbaa !186
  call void @strbuf_addbuf(ptr noundef %75, ptr noundef %80)
  br label %81

81:                                               ; preds = %74
  %82 = load i32, ptr %4, align 4, !tbaa !11
  %83 = add nsw i32 %82, 1
  store i32 %83, ptr %4, align 4, !tbaa !11
  br label %67, !llvm.loop !318

84:                                               ; preds = %67
  br label %85

85:                                               ; preds = %84, %43
  call void @llvm.lifetime.end.p0(i64 36, ptr %6) #12
  br label %86

86:                                               ; preds = %85, %38, %31
  %87 = load ptr, ptr %3, align 8, !tbaa !316
  call void @strbuf_list_free(ptr noundef %87)
  store i32 0, ptr %5, align 4
  br label %88

88:                                               ; preds = %86, %30
  call void @llvm.lifetime.end.p0(i64 4, ptr %4) #12
  call void @llvm.lifetime.end.p0(i64 8, ptr %3) #12
  %89 = load i32, ptr %5, align 4
  switch i32 %89, label %91 [
    i32 0, label %90
    i32 1, label %90
  ]

90:                                               ; preds = %88, %88
  ret void

91:                                               ; preds = %88
  unreachable
}

; Function Attrs: nounwind uwtable
define internal i32 @read_rebase_todolist(ptr noundef %0, ptr noundef %1) #0 {
  %3 = alloca i32, align 4
  %4 = alloca ptr, align 8
  %5 = alloca ptr, align 8
  %6 = alloca %struct.strbuf, align 8
  %7 = alloca ptr, align 8
  %8 = alloca i32, align 4
  store ptr %0, ptr %4, align 8, !tbaa !9
  store ptr %1, ptr %5, align 8, !tbaa !294
  call void @llvm.lifetime.start.p0(i64 24, ptr %6) #12
  call void @llvm.memcpy.p0.p0.i64(ptr align 8 %6, ptr align 8 @__const.read_rebase_todolist.line, i64 24, i1 false)
  call void @llvm.lifetime.start.p0(i64 8, ptr %7) #12
  %9 = load ptr, ptr %4, align 8, !tbaa !9
  %10 = call ptr (ptr, ...) @git_path(ptr noundef @.str.10, ptr noundef %9)
  %11 = call ptr @git_fopen(ptr noundef %10, ptr noundef @.str.135)
  store ptr %11, ptr %7, align 8, !tbaa !40
  %12 = load ptr, ptr %7, align 8, !tbaa !40
  %13 = icmp ne ptr %12, null
  br i1 %13, label %22, label %14

14:                                               ; preds = %2
  %15 = call ptr @__errno_location() #16
  %16 = load i32, ptr %15, align 4, !tbaa !11
  %17 = icmp eq i32 %16, 2
  br i1 %17, label %18, label %19

18:                                               ; preds = %14
  store i32 -1, ptr %3, align 4
  store i32 1, ptr %8, align 4
  br label %48

19:                                               ; preds = %14
  %20 = load ptr, ptr %4, align 8, !tbaa !9
  %21 = call ptr (ptr, ...) @git_path(ptr noundef @.str.10, ptr noundef %20)
  call void (ptr, ...) @die_errno(ptr noundef @.str.136, ptr noundef %21) #14
  unreachable

22:                                               ; preds = %2
  br label %23

23:                                               ; preds = %40, %39, %34, %22
  %24 = load ptr, ptr %7, align 8, !tbaa !40
  %25 = call i32 @strbuf_getline_lf(ptr noundef %6, ptr noundef %24)
  %26 = icmp ne i32 %25, 0
  %27 = xor i1 %26, true
  br i1 %27, label %28, label %45

28:                                               ; preds = %23
  %29 = getelementptr inbounds nuw %struct.strbuf, ptr %6, i32 0, i32 2
  %30 = load ptr, ptr %29, align 8, !tbaa !29
  %31 = load ptr, ptr @comment_line_str, align 8, !tbaa !9
  %32 = call i32 @starts_with(ptr noundef %30, ptr noundef %31)
  %33 = icmp ne i32 %32, 0
  br i1 %33, label %34, label %35

34:                                               ; preds = %28
  br label %23, !llvm.loop !315

35:                                               ; preds = %28
  call void @strbuf_trim(ptr noundef %6)
  %36 = getelementptr inbounds nuw %struct.strbuf, ptr %6, i32 0, i32 1
  %37 = load i64, ptr %36, align 8, !tbaa !15
  %38 = icmp ne i64 %37, 0
  br i1 %38, label %40, label %39

39:                                               ; preds = %35
  br label %23, !llvm.loop !315

40:                                               ; preds = %35
  call void @abbrev_oid_in_line(ptr noundef %6)
  %41 = load ptr, ptr %5, align 8, !tbaa !294
  %42 = getelementptr inbounds nuw %struct.strbuf, ptr %6, i32 0, i32 2
  %43 = load ptr, ptr %42, align 8, !tbaa !29
  %44 = call ptr @string_list_append(ptr noundef %41, ptr noundef %43)
  br label %23, !llvm.loop !315

45:                                               ; preds = %23
  %46 = load ptr, ptr %7, align 8, !tbaa !40
  %47 = call i32 @fclose(ptr noundef %46)
  call void @strbuf_release(ptr noundef %6)
  store i32 0, ptr %3, align 4
  store i32 1, ptr %8, align 4
  br label %48

48:                                               ; preds = %45, %18
  call void @llvm.lifetime.end.p0(i64 8, ptr %7) #12
  call void @llvm.lifetime.end.p0(i64 24, ptr %6) #12
  %49 = load i32, ptr %3, align 4
  ret i32 %49
}