; Function Attrs: nounwind uwtable
define internal fastcc range(i32 -1, 1) i32 @read_rebase_todolist(ptr noundef %0, ptr noundef nonnull %1) unnamed_addr #0 {
  %3 = alloca %struct.object_id, align 4
  %4 = alloca %struct.strbuf, align 8
  call void @llvm.lifetime.start.p0(i64 24, ptr nonnull %4) #20
  call void @llvm.memcpy.p0.p0.i64(ptr noundef nonnull align 8 dereferenceable(24) %4, ptr noundef nonnull align 8 dereferenceable(24) @__const.wt_longstatus_print_other.buf, i64 24, i1 false)
  %5 = tail call ptr (ptr, ...) @git_path(ptr noundef nonnull @.str.10, ptr noundef %0)
  %6 = tail call ptr @git_fopen(ptr noundef %5, ptr noundef nonnull @.str.135) #20
  %.not = icmp eq ptr %6, null
  br i1 %.not, label %10, label %.preheader

.preheader:                                       ; preds = %2
  %7 = call i32 @strbuf_getline_lf(ptr noundef nonnull %4, ptr noundef nonnull %6) #20
  %.not69 = icmp eq i32 %7, 0
  br i1 %.not69, label %.lr.ph, label %._crit_edge

.lr.ph:                                           ; preds = %.preheader
  %8 = getelementptr inbounds nuw i8, ptr %4, i64 16
  %9 = getelementptr inbounds nuw i8, ptr %4, i64 8
  br label %16

10:                                               ; preds = %2
  %11 = tail call ptr @__errno_location() #23
  %12 = load i32, ptr %11, align 4, !tbaa !128
  %13 = icmp eq i32 %12, 2
  br i1 %13, label %62, label %14

14:                                               ; preds = %10
  %15 = tail call ptr (ptr, ...) @git_path(ptr noundef nonnull @.str.10, ptr noundef %0)
  tail call void (ptr, ...) @die_errno(ptr noundef nonnull @.str.136, ptr noundef %15) #22
  unreachable

16:                                               ; preds = %.lr.ph, %.backedge
  %17 = load ptr, ptr %8, align 8, !tbaa !25
  %18 = load ptr, ptr @comment_line_str, align 8, !tbaa !22
  %19 = call i32 @starts_with(ptr noundef %17, ptr noundef %18) #20
  %.not7 = icmp eq i32 %19, 0
  br i1 %.not7, label %20, label %.backedge

20:                                               ; preds = %16
  call void @strbuf_trim(ptr noundef nonnull %4) #20
  %21 = load i64, ptr %9, align 8, !tbaa !4
  %.not8 = icmp eq i64 %21, 0
  br i1 %.not8, label %.backedge, label %22

22:                                               ; preds = %20
  %23 = load ptr, ptr %8, align 8, !tbaa !25
  %24 = call i32 @starts_with(ptr noundef %23, ptr noundef nonnull @.str.137) #20
  %.not.i = icmp eq i32 %24, 0
  br i1 %.not.i, label %25, label %abbrev_oid_in_line.exit

25:                                               ; preds = %22
  %26 = load ptr, ptr %8, align 8, !tbaa !25
  %27 = call i32 @starts_with(ptr noundef %26, ptr noundef nonnull @.str.138) #20
  %.not20.i = icmp eq i32 %27, 0
  br i1 %.not20.i, label %28, label %abbrev_oid_in_line.exit

28:                                               ; preds = %25
  %29 = load ptr, ptr %8, align 8, !tbaa !25
  %30 = call i32 @starts_with(ptr noundef %29, ptr noundef nonnull @.str.139) #20
  %.not21.i = icmp eq i32 %30, 0
  br i1 %.not21.i, label %31, label %abbrev_oid_in_line.exit

31:                                               ; preds = %28
  %32 = load ptr, ptr %8, align 8, !tbaa !25
  %33 = call i32 @starts_with(ptr noundef %32, ptr noundef nonnull @.str.140) #20
  %.not22.i = icmp eq i32 %33, 0
  br i1 %.not22.i, label %34, label %abbrev_oid_in_line.exit

34:                                               ; preds = %31
  %.val.i = load i64, ptr %9, align 8, !tbaa !4
  %.val27.i = load ptr, ptr %8, align 8, !tbaa !25
  %35 = call ptr @strbuf_split_buf(ptr noundef %.val27.i, i64 noundef %.val.i, i32 noundef 32, i32 noundef 3) #20
  %36 = load ptr, ptr %35, align 8, !tbaa !278
  %.not23.i = icmp eq ptr %36, null
  br i1 %.not23.i, label %57, label %37

37:                                               ; preds = %34
  %38 = getelementptr inbounds nuw i8, ptr %35, i64 8
  %39 = load ptr, ptr %38, align 8, !tbaa !278
  %.not24.i = icmp eq ptr %39, null
  br i1 %.not24.i, label %57, label %40

40:                                               ; preds = %37
  call void @llvm.lifetime.start.p0(i64 36, ptr nonnull %3) #20
  call void @strbuf_trim(ptr noundef nonnull %39) #20
  %41 = load ptr, ptr @the_repository, align 8, !tbaa !33
  %42 = load ptr, ptr %38, align 8, !tbaa !278
  %43 = getelementptr inbounds nuw i8, ptr %42, i64 16
  %44 = load ptr, ptr %43, align 8, !tbaa !25
  %45 = call i32 @repo_get_oid(ptr noundef %41, ptr noundef %44, ptr noundef nonnull %3) #20
  %.not25.i = icmp eq i32 %45, 0
  br i1 %.not25.i, label %46, label %.loopexit.i

46:                                               ; preds = %40
  %47 = load ptr, ptr %38, align 8, !tbaa !278
  call fastcc void @strbuf_setlen(ptr noundef %47, i64 noundef 0)
  %48 = load ptr, ptr %38, align 8, !tbaa !278
  %49 = load i32, ptr @default_abbrev, align 4, !tbaa !128
  call void @strbuf_add_unique_abbrev(ptr noundef %48, ptr noundef nonnull %3, i32 noundef %49) #20
  %50 = load ptr, ptr %38, align 8, !tbaa !278
  call fastcc void @strbuf_addch(ptr noundef %50, i32 noundef 32)
  store i64 0, ptr %9, align 8, !tbaa !4
  %51 = load ptr, ptr %8, align 8, !tbaa !25
  %.not9.i = icmp eq ptr %51, @strbuf_slopbuf
  br i1 %.not9.i, label %strbuf_setlen.exit, label %52

52:                                               ; preds = %46
  store i8 0, ptr %51, align 1, !tbaa !26
  br label %strbuf_setlen.exit

strbuf_setlen.exit:                               ; preds = %46, %52
  %53 = load ptr, ptr %35, align 8, !tbaa !278
  %.not2628.i = icmp eq ptr %53, null
  br i1 %.not2628.i, label %.loopexit.i, label %.lr.ph.i

.lr.ph.i:                                         ; preds = %strbuf_setlen.exit, %.lr.ph.i
  %indvars.iv.i = phi i64 [ %indvars.iv.next.i, %.lr.ph.i ], [ 0, %strbuf_setlen.exit ]
  %54 = phi ptr [ %56, %.lr.ph.i ], [ %53, %strbuf_setlen.exit ]
  call void @strbuf_addbuf(ptr noundef nonnull %4, ptr noundef nonnull %54) #20
  %indvars.iv.next.i = add nuw nsw i64 %indvars.iv.i, 1
  %55 = getelementptr inbounds nuw ptr, ptr %35, i64 %indvars.iv.next.i
  %56 = load ptr, ptr %55, align 8, !tbaa !278
  %.not26.i = icmp eq ptr %56, null
  br i1 %.not26.i, label %.loopexit.i, label %.lr.ph.i, !llvm.loop !280

.loopexit.i:                                      ; preds = %.lr.ph.i, %strbuf_setlen.exit, %40
  call void @llvm.lifetime.end.p0(i64 36, ptr nonnull %3) #20
  br label %57

57:                                               ; preds = %.loopexit.i, %37, %34
  call void @strbuf_list_free(ptr noundef nonnull %35) #20
  br label %abbrev_oid_in_line.exit

abbrev_oid_in_line.exit:                          ; preds = %22, %25, %28, %31, %57
  %58 = load ptr, ptr %8, align 8, !tbaa !25
  %59 = call ptr @string_list_append(ptr noundef nonnull %1, ptr noundef %58) #20
  br label %.backedge

.backedge:                                        ; preds = %abbrev_oid_in_line.exit, %16, %20
  %60 = call i32 @strbuf_getline_lf(ptr noundef nonnull %4, ptr noundef nonnull %6) #20
  %.not6 = icmp eq i32 %60, 0
  br i1 %.not6, label %16, label %._crit_edge, !llvm.loop !281

._crit_edge:                                      ; preds = %.backedge, %.preheader
  %61 = call i32 @fclose(ptr noundef nonnull %6)
  call void @strbuf_release(ptr noundef nonnull %4) #20
  br label %62

62:                                               ; preds = %10, %._crit_edge
  %.0 = phi i32 [ 0, %._crit_edge ], [ -1, %10 ]
  call void @llvm.lifetime.end.p0(i64 24, ptr nonnull %4) #20
  ret i32 %.0
}